; Function Attrs: nounwind uwtable
define hidden ptr @je_malloc_tsd_boot0() local_unnamed_addr #0 {
  %1 = tail call zeroext i1 @je_malloc_mutex_init(ptr noundef nonnull @tsd_nominal_tsds_lock, ptr noundef nonnull @.str, i32 noundef 0, i32 noundef 0) #7
  br i1 %1, label %tsd_fetch_impl.exit, label %2

2:                                                ; preds = %0
  %3 = tail call i32 @pthread_key_create(ptr noundef nonnull @je_tsd_tsd, ptr noundef nonnull @je_tsd_cleanup) #7
  %.not.i.not = icmp eq i32 %3, 0
  br i1 %.not.i.not, label %4, label %tsd_fetch_impl.exit

4:                                                ; preds = %2
  store i8 1, ptr @je_tsd_booted, align 1, !tbaa !45
  %5 = tail call nonnull align 8 ptr @llvm.threadlocal.address.p0(ptr align 8 @je_tsd_tls)
  %6 = getelementptr inbounds nuw i8, ptr %5, i64 832
  %7 = load i8, ptr %6, align 8, !tbaa !44
  %.not.i2 = icmp eq i8 %7, 0
  br i1 %.not.i2, label %tsd_fetch_impl.exit, label %8, !prof !63

8:                                                ; preds = %4
  %9 = tail call ptr @je_tsd_fetch_slow(ptr noundef nonnull %5, i1 noundef zeroext false)
  br label %tsd_fetch_impl.exit

tsd_fetch_impl.exit:                              ; preds = %2, %8, %4, %0
  %.0 = phi ptr [ null, %0 ], [ %5, %8 ], [ %5, %4 ], [ null, %2 ]
  ret ptr %.0
}